target datalayout = "e-m:e-p270:32:32-p271:32:32-p272:64:64-i64:64-i128:128-f80:128-n8:16:32:64-S128"
target triple = "x86_64-pc-linux-gnu"

%struct._object = type { %union.anon, ptr }
%union.anon = type { i64 }
%struct.anon = type { i32, i32 }
%struct.PyAsyncGenAThrow = type { %struct._object, ptr, ptr, i32 }

@PyExc_StopIteration = external global ptr, align 8
@_Py_NoneStruct = external global %struct._object, align 8
@PyExc_GeneratorExit = external global ptr, align 8
@.str.14 = private unnamed_addr constant [32 x i8] c"coroutine ignored GeneratorExit\00", align 1
@PyExc_RuntimeError = external global ptr, align 8
@PyExc_StopAsyncIteration = external global ptr, align 8

; Function Attrs: alwaysinline nounwind uwtable
define internal i32 @_Py_IsImmortal(ptr noundef %0) #3 {
  %2 = alloca ptr, align 8
  store ptr %0, ptr %2, align 8, !tbaa !11
  %3 = load ptr, ptr %2, align 8, !tbaa !11
  %4 = getelementptr inbounds nuw %struct._object, ptr %3, i32 0, i32 0
  %5 = getelementptr inbounds nuw %struct.anon, ptr %4, i32 0, i32 0
  %6 = load i32, ptr %5, align 8, !tbaa !13
  %7 = icmp slt i32 %6, 0
  %8 = zext i1 %7 to i32
  ret i32 %8
}

; Function Attrs: alwaysinline nounwind uwtable
define internal void @Py_DECREF(ptr noundef %0) #3 {
  %2 = alloca ptr, align 8
  store ptr %0, ptr %2, align 8, !tbaa !11
  %3 = load ptr, ptr %2, align 8, !tbaa !11
  %4 = call i32 @_Py_IsImmortal(ptr noundef %3)
  %5 = icmp ne i32 %4, 0
  br i1 %5, label %6, label %7

6:                                                ; preds = %1
  br label %16

7:                                                ; preds = %1
  %8 = load ptr, ptr %2, align 8, !tbaa !11
  %9 = getelementptr inbounds nuw %struct._object, ptr %8, i32 0, i32 0
  %10 = getelementptr inbounds nuw %struct.anon, ptr %9, i32 0, i32 0
  %11 = load i32, ptr %10, align 8, !tbaa !13
  %12 = add i32 %11, -1
  store i32 %12, ptr %10, align 8, !tbaa !13
  %13 = icmp eq i32 %12, 0
  br i1 %13, label %14, label %16

14:                                               ; preds = %7
  %15 = load ptr, ptr %2, align 8, !tbaa !11
  call void @_Py_Dealloc(ptr noundef %15)
  br label %16

16:                                               ; preds = %6, %14, %7
  ret void
}

; Function Attrs: nounwind uwtable
define internal ptr @async_gen_athrow_close(ptr noundef %0, ptr noundef %1) #0 {
  %3 = alloca ptr, align 8
  %4 = alloca ptr, align 8
  %5 = alloca ptr, align 8
  %6 = alloca ptr, align 8
  %7 = alloca i32, align 4
  %8 = alloca ptr, align 8
  store ptr %0, ptr %4, align 8, !tbaa !11
  store ptr %1, ptr %5, align 8, !tbaa !11
  call void @llvm.lifetime.start.p0(i64 8, ptr %6) #7
  %9 = load ptr, ptr %4, align 8, !tbaa !11
  store ptr %9, ptr %6, align 8, !tbaa !189
  %10 = load ptr, ptr %6, align 8, !tbaa !189
  %11 = getelementptr inbounds nuw %struct.PyAsyncGenAThrow, ptr %10, i32 0, i32 3
  %12 = load i32, ptr %11, align 8, !tbaa !194
  %13 = icmp eq i32 %12, 2
  br i1 %13, label %14, label %15

14:                                               ; preds = %2
  store ptr @_Py_NoneStruct, ptr %3, align 8
  store i32 1, ptr %7, align 4
  br label %39

15:                                               ; preds = %2
  call void @llvm.lifetime.start.p0(i64 8, ptr %8) #7
  %16 = load ptr, ptr %6, align 8, !tbaa !189
  %17 = call ptr @async_gen_athrow_throw(ptr noundef %16, ptr noundef @PyExc_GeneratorExit, i64 noundef 1)
  store ptr %17, ptr %8, align 8, !tbaa !11
  %18 = load ptr, ptr %8, align 8, !tbaa !11
  %19 = icmp eq ptr %18, null
  br i1 %19, label %20, label %35

20:                                               ; preds = %15
  %21 = load ptr, ptr @PyExc_StopIteration, align 8, !tbaa !11
  %22 = call i32 @PyErr_ExceptionMatches(ptr noundef %21)
  %23 = icmp ne i32 %22, 0
  br i1 %23, label %32, label %24

24:                                               ; preds = %20
  %25 = load ptr, ptr @PyExc_StopAsyncIteration, align 8, !tbaa !11
  %26 = call i32 @PyErr_ExceptionMatches(ptr noundef %25)
  %27 = icmp ne i32 %26, 0
  br i1 %27, label %32, label %28

28:                                               ; preds = %24
  %29 = load ptr, ptr @PyExc_GeneratorExit, align 8, !tbaa !11
  %30 = call i32 @PyErr_ExceptionMatches(ptr noundef %29)
  %31 = icmp ne i32 %30, 0
  br i1 %31, label %32, label %33

32:                                               ; preds = %28, %24, %20
  call void @PyErr_Clear()
  store ptr @_Py_NoneStruct, ptr %3, align 8
  store i32 1, ptr %7, align 4
  br label %38

33:                                               ; preds = %28
  %34 = load ptr, ptr %8, align 8, !tbaa !11
  store ptr %34, ptr %3, align 8
  store i32 1, ptr %7, align 4
  br label %38

35:                                               ; preds = %15
  %36 = load ptr, ptr %8, align 8, !tbaa !11
  call void @Py_DECREF(ptr noundef %36)
  %37 = load ptr, ptr @PyExc_RuntimeError, align 8, !tbaa !11
  call void @PyErr_SetString(ptr noundef %37, ptr noundef @.str.14)
  store ptr null, ptr %3, align 8
  store i32 1, ptr %7, align 4
  br label %38

38:                                               ; preds = %35, %33, %32
  call void @llvm.lifetime.end.p0(i64 8, ptr %8) #7
  br label %39

39:                                               ; preds = %38, %14
  call void @llvm.lifetime.end.p0(i64 8, ptr %6) #7
  %40 = load ptr, ptr %3, align 8
  ret ptr %40
}