; Function Attrs: nounwind uwtable
define internal noundef ptr @async_gen_athrow_close(ptr noundef captures(none) %0, ptr readnone captures(none) %1) #2 {
  %3 = getelementptr inbounds nuw i8, ptr %0, i64 32
  %4 = load i32, ptr %3, align 8, !tbaa !176
  %5 = icmp eq i32 %4, 2
  br i1 %5, label %26, label %6

6:                                                ; preds = %2
  %7 = tail call ptr @async_gen_athrow_throw(ptr noundef nonnull %0, ptr noundef nonnull @PyExc_GeneratorExit, i64 noundef 1)
  %8 = icmp eq ptr %7, null
  br i1 %8, label %9, label %19

9:                                                ; preds = %6
  %10 = load ptr, ptr @PyExc_StopIteration, align 8, !tbaa !32
  %11 = tail call i32 @PyErr_ExceptionMatches(ptr noundef %10) #8
  %.not = icmp eq i32 %11, 0
  br i1 %.not, label %12, label %18

12:                                               ; preds = %9
  %13 = load ptr, ptr @PyExc_StopAsyncIteration, align 8, !tbaa !32
  %14 = tail call i32 @PyErr_ExceptionMatches(ptr noundef %13) #8
  %.not9 = icmp eq i32 %14, 0
  br i1 %.not9, label %15, label %18

15:                                               ; preds = %12
  %16 = load ptr, ptr @PyExc_GeneratorExit, align 8, !tbaa !32
  %17 = tail call i32 @PyErr_ExceptionMatches(ptr noundef %16) #8
  %.not10 = icmp eq i32 %17, 0
  br i1 %.not10, label %26, label %18

18:                                               ; preds = %15, %12, %9
  tail call void @PyErr_Clear() #8
  br label %26

19:                                               ; preds = %6
  %20 = load i32, ptr %7, align 8, !tbaa !4
  %.not.i = icmp sgt i32 %20, -1
  br i1 %.not.i, label %21, label %Py_DECREF.exit

21:                                               ; preds = %19
  %22 = add nsw i32 %20, -1
  store i32 %22, ptr %7, align 8, !tbaa !4
  %23 = icmp eq i32 %22, 0
  br i1 %23, label %24, label %Py_DECREF.exit

24:                                               ; preds = %21
  tail call void @_Py_Dealloc(ptr noundef nonnull %7) #8
  br label %Py_DECREF.exit

Py_DECREF.exit:                                   ; preds = %19, %21, %24
  %25 = load ptr, ptr @PyExc_RuntimeError, align 8, !tbaa !32
  tail call void @PyErr_SetString(ptr noundef %25, ptr noundef nonnull @.str.14) #8
  br label %26

26:                                               ; preds = %18, %Py_DECREF.exit, %15, %2
  %.0 = phi ptr [ @_Py_NoneStruct, %2 ], [ @_Py_NoneStruct, %18 ], [ null, %Py_DECREF.exit ], [ null, %15 ]
  ret ptr %.0
}